; Function Attrs: mustprogress nofree norecurse nosync nounwind willreturn memory(argmem: readwrite) uwtable
define ptr @uregex_pattern_75(ptr noundef readonly %regexp2, ptr noundef writeonly %patLength, ptr nocapture noundef %status) local_unnamed_addr #8 {
entry:
  %0 = load i32, ptr %status, align 4
  %cmp.i.i = icmp slt i32 %0, 1
  br i1 %cmp.i.i, label %if.end.i, label %return

if.end.i:                                         ; preds = %entry
  %cmp.i = icmp eq ptr %regexp2, null
  br i1 %cmp.i, label %return.sink.split.i, label %lor.lhs.false.i

lor.lhs.false.i:                                  ; preds = %if.end.i
  %1 = load i32, ptr %regexp2, align 8
  %cmp1.not.i = icmp eq i32 %1, 1919252592
  br i1 %cmp1.not.i, label %if.end, label %return.sink.split.i

return.sink.split.i:                              ; preds = %lor.lhs.false.i, %if.end.i
  store i32 1, ptr %status, align 4
  br label %return

if.end:                                           ; preds = %lor.lhs.false.i
  %cmp1.not = icmp eq ptr %patLength, null
  br i1 %cmp1.not, label %if.end3, label %if.then2

if.then2:                                         ; preds = %if.end
  %fPatStringLen = getelementptr inbounds i8, ptr %regexp2, i64 32
  %2 = load i32, ptr %fPatStringLen, align 8
  store i32 %2, ptr %patLength, align 4
  br label %if.end3

if.end3:                                          ; preds = %if.then2, %if.end
  %fPatString = getelementptr inbounds i8, ptr %regexp2, i64 24
  %3 = load ptr, ptr %fPatString, align 8
  br label %return

return:                                           ; preds = %return.sink.split.i, %entry, %if.end3
  %retval.0 = phi ptr [ %3, %if.end3 ], [ null, %entry ], [ null, %return.sink.split.i ]
  ret ptr %retval.0
}